; Function Attrs: nounwind uwtable
define hidden ptr @opj_t1_create(i32 noundef %0) local_unnamed_addr #0 {
  %2 = tail call ptr @opj_calloc(i64 noundef 1, i64 noundef 272) #12
  %.not = icmp eq ptr %2, null
  br i1 %.not, label %5, label %3

3:                                                ; preds = %1
  %4 = getelementptr inbounds nuw i8, ptr %2, i64 248
  store i32 %0, ptr %4, align 8, !tbaa !3
  br label %5

5:                                                ; preds = %1, %3
  ret ptr %2
}